(iFARMWARE
Plant
p0
(dp1
S'kind'
p2
(iFARMWARE
PlantType
p3
(dp4
S'name'
p5
S'plant1'
p6
sS'growthTime1'
p7
I12
sS'growthTime0'
p8
I10
sS'growthTime2'
p9
I8
sS'y'
p10
I42
sS'x'
p11
I42
sS'hole'
p12
I01
sS'z'
p13
I-42
sbsS'pot'
p14
(iFARMWARE
Pot
p15
(dp16
S'plant'
p17
g0
sS'ident'
p18
S'0,20,320'
p19
sS'region'
p20
(iFARMWARE
Region
p21
(dp22
S'position'
p23
((I0
I5
tp24
(I10
I20
tp25
tp26
sS'growthStage'
p27
I0
sg18
I0
sbsg10
I320
sg11
I20
sg13
I-300
sbsS'id'
p28
S'10'
p29
sb.