(iFARMWARE
Pot
p0
(dp1
S'plant'
p2
(iFARMWARE
Plant
p3
(dp4
S'kind'
p5
(iFARMWARE
PlantType
p6
(dp7
S'name'
p8
S'plant2'
p9
sS'growthTime1'
p10
I12
sS'growthTime0'
p11
I10
sS'growthTime2'
p12
I8
sS'y'
p13
I42
sS'x'
p14
I42
sS'hole'
p15
I00
sS'z'
p16
I-42
sbsS'pot'
p17
g0
sS'id'
p18
S'23'
p19
sbsS'ident'
p20
S'0,50,230'
p21
sS'region'
p22
(iFARMWARE
Region
p23
(dp24
S'position'
p25
((I0
I5
tp26
(I10
I20
tp27
tp28
sS'growthStage'
p29
I0
sg20
I0
sbsg13
I230
sg14
I50
sg16
I-300
sb.