(iFARMWARE
Pot
p0
(dp1
S'y'
p2
I350
sS'x'
p3
I50
sS'region'
p4
(iFARMWARE
Region
p5
(dp6
S'position'
p7
((I0
I5
tp8
(I10
I20
tp9
tp10
sS'growthStage'
p11
I0
sS'ident'
p12
I0
sbsg12
S'0,50,350'
p13
sS'z'
p14
I-300
sb.